target datalayout = "e-m:e-p270:32:32-p271:32:32-p272:64:64-i64:64-i128:128-f80:128-n8:16:32:64-S128"
target triple = "x86_64-pc-linux-gnu"

%struct.dt_pthread_mutex_t = type { %union.pthread_mutex_t }
%union.pthread_mutex_t = type { %struct.__pthread_mutex_s }
%struct.__pthread_mutex_s = type { i32, i32, i32, i32, i32, i16, i16, %struct.__pthread_internal_list }
%struct.__pthread_internal_list = type { ptr, ptr }
%struct._GSList = type { ptr, ptr }
%struct._GList = type { ptr, ptr, ptr }

@background_running = internal global i32 0, align 4
@pending_images = internal global ptr null, align 8
@lock_initialized = internal global i32 0, align 4
@pending_mutex = internal global %struct.dt_pthread_mutex_t zeroinitializer, align 8

; Function Attrs: inlinehint nounwind uwtable
define internal i32 @dt_pthread_mutex_unlock(ptr noundef %0) #3 {
  %2 = alloca ptr, align 8
  store ptr %0, ptr %2, align 8, !tbaa !63
  %3 = load ptr, ptr %2, align 8, !tbaa !63
  %4 = getelementptr inbounds nuw %struct.dt_pthread_mutex_t, ptr %3, i32 0, i32 0
  %5 = call i32 @pthread_mutex_unlock(ptr noundef %4) #6
  ret i32 %5
}

; Function Attrs: inlinehint nounwind uwtable
define internal i32 @dt_pthread_mutex_lock(ptr noundef %0) #3 {
  %2 = alloca ptr, align 8
  store ptr %0, ptr %2, align 8, !tbaa !63
  %3 = load ptr, ptr %2, align 8, !tbaa !63
  %4 = getelementptr inbounds nuw %struct.dt_pthread_mutex_t, ptr %3, i32 0, i32 0
  %5 = call i32 @pthread_mutex_lock(ptr noundef %4) #6
  ret i32 %5
}

; Function Attrs: inlinehint nounwind uwtable
define internal i32 @dt_pthread_mutex_init(ptr noundef %0, ptr noundef %1) #3 {
  %3 = alloca ptr, align 8
  %4 = alloca ptr, align 8
  store ptr %0, ptr %3, align 8, !tbaa !63
  store ptr %1, ptr %4, align 8, !tbaa !65
  %5 = load ptr, ptr %3, align 8, !tbaa !63
  %6 = getelementptr inbounds nuw %struct.dt_pthread_mutex_t, ptr %5, i32 0, i32 0
  %7 = load ptr, ptr %4, align 8, !tbaa !65
  %8 = call i32 @pthread_mutex_init(ptr noundef %6, ptr noundef %7) #6
  ret i32 %8
}

; Function Attrs: nounwind uwtable
define internal void @_unlock_pending_queue() #0 {
  %1 = load i32, ptr @lock_initialized, align 4, !tbaa !6
  %2 = icmp ne i32 %1, 0
  br i1 %2, label %3, label %5

3:                                                ; preds = %0
  %4 = call i32 @dt_pthread_mutex_unlock(ptr noundef @pending_mutex)
  br label %5

5:                                                ; preds = %3, %0
  ret void
}

; Function Attrs: nounwind uwtable
define internal void @_lock_pending_queue() #0 {
  %1 = load i32, ptr @lock_initialized, align 4, !tbaa !6
  %2 = icmp ne i32 %1, 0
  br i1 %2, label %5, label %3

3:                                                ; preds = %0
  %4 = call i32 @dt_pthread_mutex_init(ptr noundef @pending_mutex, ptr noundef null)
  store i32 1, ptr @lock_initialized, align 4, !tbaa !6
  br label %5

5:                                                ; preds = %3, %0
  %6 = call i32 @dt_pthread_mutex_lock(ptr noundef @pending_mutex)
  ret void
}

; Function Attrs: nounwind uwtable
define void @dt_sidecar_synch_enqueue_list(ptr noundef %0) #0 {
  %2 = alloca ptr, align 8
  %3 = alloca ptr, align 8
  %4 = alloca ptr, align 8
  %5 = alloca ptr, align 8
  %6 = alloca ptr, align 8
  store ptr %0, ptr %2, align 8, !tbaa !15
  %7 = load ptr, ptr %2, align 8, !tbaa !15
  %8 = icmp ne ptr %7, null
  br i1 %8, label %10, label %9

9:                                                ; preds = %1
  br label %66

10:                                               ; preds = %1
  %11 = load i32, ptr @background_running, align 4, !tbaa !6
  %12 = icmp ne i32 %11, 0
  br i1 %12, label %37, label %13

13:                                               ; preds = %10
  call void @llvm.lifetime.start.p0(i64 8, ptr %3) #6
  %14 = load ptr, ptr %2, align 8, !tbaa !15
  store ptr %14, ptr %3, align 8, !tbaa !15
  br label %15

15:                                               ; preds = %34, %13
  %16 = load ptr, ptr %3, align 8, !tbaa !15
  %17 = icmp ne ptr %16, null
  br i1 %17, label %19, label %18

18:                                               ; preds = %15
  call void @llvm.lifetime.end.p0(i64 8, ptr %3) #6
  br label %36

19:                                               ; preds = %15
  %20 = load ptr, ptr %3, align 8, !tbaa !15
  %21 = getelementptr inbounds nuw %struct._GList, ptr %20, i32 0, i32 0
  %22 = load ptr, ptr %21, align 8, !tbaa !17
  %23 = ptrtoint ptr %22 to i64
  %24 = trunc i64 %23 to i32
  %25 = call i32 @dt_image_write_sidecar_file(i32 noundef %24)
  br label %26

26:                                               ; preds = %19
  %27 = load ptr, ptr %3, align 8, !tbaa !15
  %28 = icmp ne ptr %27, null
  br i1 %28, label %29, label %33

29:                                               ; preds = %26
  %30 = load ptr, ptr %3, align 8, !tbaa !15
  %31 = getelementptr inbounds nuw %struct._GList, ptr %30, i32 0, i32 1
  %32 = load ptr, ptr %31, align 8, !tbaa !19
  br label %34

33:                                               ; preds = %26
  br label %34

34:                                               ; preds = %33, %29
  %35 = phi ptr [ %32, %29 ], [ null, %33 ]
  store ptr %35, ptr %3, align 8, !tbaa !15
  br label %15

36:                                               ; preds = %18
  br label %66

37:                                               ; preds = %10
  call void @llvm.lifetime.start.p0(i64 8, ptr %4) #6
  store ptr null, ptr %4, align 8, !tbaa !10
  call void @llvm.lifetime.start.p0(i64 8, ptr %5) #6
  %38 = load ptr, ptr %2, align 8, !tbaa !15
  store ptr %38, ptr %5, align 8, !tbaa !15
  br label %39

39:                                               ; preds = %57, %37
  %40 = load ptr, ptr %5, align 8, !tbaa !15
  %41 = icmp ne ptr %40, null
  br i1 %41, label %43, label %42

42:                                               ; preds = %39
  call void @llvm.lifetime.end.p0(i64 8, ptr %5) #6
  br label %59

43:                                               ; preds = %39
  %44 = load ptr, ptr %4, align 8, !tbaa !10
  %45 = load ptr, ptr %5, align 8, !tbaa !15
  %46 = getelementptr inbounds nuw %struct._GList, ptr %45, i32 0, i32 0
  %47 = load ptr, ptr %46, align 8, !tbaa !17
  %48 = call ptr @g_slist_prepend(ptr noundef %44, ptr noundef %47)
  store ptr %48, ptr %4, align 8, !tbaa !10
  br label %49

49:                                               ; preds = %43
  %50 = load ptr, ptr %5, align 8, !tbaa !15
  %51 = icmp ne ptr %50, null
  br i1 %51, label %52, label %56

52:                                               ; preds = %49
  %53 = load ptr, ptr %5, align 8, !tbaa !15
  %54 = getelementptr inbounds nuw %struct._GList, ptr %53, i32 0, i32 1
  %55 = load ptr, ptr %54, align 8, !tbaa !19
  br label %57

56:                                               ; preds = %49
  br label %57

57:                                               ; preds = %56, %52
  %58 = phi ptr [ %55, %52 ], [ null, %56 ]
  store ptr %58, ptr %5, align 8, !tbaa !15
  br label %39

59:                                               ; preds = %42
  call void @llvm.lifetime.start.p0(i64 8, ptr %6) #6
  %60 = load ptr, ptr %4, align 8, !tbaa !10
  %61 = call ptr @g_slist_last(ptr noundef %60)
  store ptr %61, ptr %6, align 8, !tbaa !10
  call void @_lock_pending_queue()
  %62 = load ptr, ptr @pending_images, align 8, !tbaa !10
  %63 = load ptr, ptr %6, align 8, !tbaa !10
  %64 = getelementptr inbounds nuw %struct._GSList, ptr %63, i32 0, i32 1
  store ptr %62, ptr %64, align 8, !tbaa !13
  %65 = load ptr, ptr %4, align 8, !tbaa !10
  store ptr %65, ptr @pending_images, align 8, !tbaa !10
  call void @_unlock_pending_queue()
  call void @llvm.lifetime.end.p0(i64 8, ptr %6) #6
  call void @llvm.lifetime.end.p0(i64 8, ptr %4) #6
  br label %66

66:                                               ; preds = %59, %36, %9
  ret void
}