; Function Attrs: nounwind uwtable
define void @dt_sidecar_synch_enqueue_list(ptr noundef readonly %0) local_unnamed_addr #0 {
  %.not = icmp eq ptr %0, null
  br i1 %.not, label %_unlock_pending_queue.exit, label %2

2:                                                ; preds = %1
  %.b = load i1, ptr @background_running, align 4
  br i1 %.b, label %.preheader, label %.preheader21

.preheader21:                                     ; preds = %2, %.preheader21
  %.022 = phi ptr [ %8, %.preheader21 ], [ %0, %2 ]
  %3 = load ptr, ptr %.022, align 8, !tbaa !13
  %4 = ptrtoint ptr %3 to i64
  %5 = trunc i64 %4 to i32
  %6 = tail call i32 @dt_image_write_sidecar_file(i32 noundef %5) #6
  %7 = getelementptr inbounds nuw i8, ptr %.022, i64 8
  %8 = load ptr, ptr %7, align 8, !tbaa !16
  %.not18 = icmp eq ptr %8, null
  br i1 %.not18, label %_unlock_pending_queue.exit, label %.preheader21

9:                                                ; preds = %.preheader
  %10 = tail call ptr @g_slist_last(ptr noundef %19) #6
  %.b.i = load i1, ptr @lock_initialized, align 4
  br i1 %.b.i, label %_lock_pending_queue.exit, label %11

11:                                               ; preds = %9
  %12 = tail call i32 @pthread_mutex_init(ptr noundef nonnull @pending_mutex, ptr noundef null) #6
  store i1 true, ptr @lock_initialized, align 4
  br label %_lock_pending_queue.exit

_lock_pending_queue.exit:                         ; preds = %9, %11
  %13 = tail call i32 @pthread_mutex_lock(ptr noundef nonnull @pending_mutex) #6
  %14 = load ptr, ptr @pending_images, align 8, !tbaa !6
  %15 = getelementptr inbounds nuw i8, ptr %10, i64 8
  store ptr %14, ptr %15, align 8, !tbaa !11
  store ptr %19, ptr @pending_images, align 8, !tbaa !6
  %.b.i20 = load i1, ptr @lock_initialized, align 4
  br i1 %.b.i20, label %16, label %_unlock_pending_queue.exit

16:                                               ; preds = %_lock_pending_queue.exit
  %17 = tail call i32 @pthread_mutex_unlock(ptr noundef nonnull @pending_mutex) #6
  br label %_unlock_pending_queue.exit

.preheader:                                       ; preds = %2, %.preheader
  %.01524 = phi ptr [ %21, %.preheader ], [ %0, %2 ]
  %.01623 = phi ptr [ %19, %.preheader ], [ null, %2 ]
  %18 = load ptr, ptr %.01524, align 8, !tbaa !13
  %19 = tail call ptr @g_slist_prepend(ptr noundef %.01623, ptr noundef %18) #6
  %20 = getelementptr inbounds nuw i8, ptr %.01524, i64 8
  %21 = load ptr, ptr %20, align 8, !tbaa !16
  %.not19 = icmp eq ptr %21, null
  br i1 %.not19, label %9, label %.preheader

_unlock_pending_queue.exit:                       ; preds = %.preheader21, %16, %_lock_pending_queue.exit, %1
  ret void
}